target datalayout = "e-m:e-p270:32:32-p271:32:32-p272:64:64-i64:64-i128:128-f80:128-n8:16:32:64-S128"
target triple = "x86_64-pc-linux-gnu"

%"class.std::_Function_base" = type { %"union.std::_Any_data", ptr }
%"union.std::_Any_data" = type { %"union.std::_Nocopy_types" }
%"union.std::_Nocopy_types" = type { { i64, i64 } }
%"class.gmx::TrajectoryElement" = type { %"class.gmx::ISimulatorElement", %"class.gmx::ILoggingSignallerClient", %"class.gmx::ITrajectorySignallerClient", i64, i64, i64, ptr, %"class.std::vector", %"class.std::vector.2", %"class.std::vector.2" }
%"class.gmx::ISimulatorElement" = type { ptr }
%"class.gmx::ILoggingSignallerClient" = type { ptr }
%"class.gmx::ITrajectorySignallerClient" = type { ptr }
%"class.std::vector" = type { %"struct.std::_Vector_base" }
%"struct.std::_Vector_base" = type { %"struct.std::_Vector_base<gmx::ITrajectoryWriterClient *, std::allocator<gmx::ITrajectoryWriterClient *>>::_Vector_impl" }
%"struct.std::_Vector_base<gmx::ITrajectoryWriterClient *, std::allocator<gmx::ITrajectoryWriterClient *>>::_Vector_impl" = type { %"struct.std::_Vector_base<gmx::ITrajectoryWriterClient *, std::allocator<gmx::ITrajectoryWriterClient *>>::_Vector_impl_data" }
%"struct.std::_Vector_base<gmx::ITrajectoryWriterClient *, std::allocator<gmx::ITrajectoryWriterClient *>>::_Vector_impl_data" = type { ptr, ptr, ptr }
%"class.std::vector.2" = type { %"struct.std::_Vector_base.3" }
%"struct.std::_Vector_base.3" = type { %"struct.std::_Vector_base<std::function<void (gmx_mdoutf *, long, double, bool, bool)>, std::allocator<std::function<void (gmx_mdoutf *, long, double, bool, bool)>>>::_Vector_impl" }
%"struct.std::_Vector_base<std::function<void (gmx_mdoutf *, long, double, bool, bool)>, std::allocator<std::function<void (gmx_mdoutf *, long, double, bool, bool)>>>::_Vector_impl" = type { %"struct.std::_Vector_base<std::function<void (gmx_mdoutf *, long, double, bool, bool)>, std::allocator<std::function<void (gmx_mdoutf *, long, double, bool, bool)>>>::_Vector_impl_data" }
%"struct.std::_Vector_base<std::function<void (gmx_mdoutf *, long, double, bool, bool)>, std::allocator<std::function<void (gmx_mdoutf *, long, double, bool, bool)>>>::_Vector_impl_data" = type { ptr, ptr, ptr }
%"class.std::function.13" = type { %"class.std::_Function_base", ptr }
%"class.__gnu_cxx::__normal_iterator.19" = type { ptr }

; Function Attrs: mustprogress nounwind uwtable
define linkonce_odr noundef zeroext i1 @_ZNKSt14_Function_base8_M_emptyEv(ptr noundef nonnull align 8 dereferenceable(24) %0) #2 comdat align 2 {
  %2 = alloca ptr, align 8
  store ptr %0, ptr %2, align 8, !tbaa !141
  %3 = load ptr, ptr %2, align 8
  %4 = getelementptr inbounds nuw %"class.std::_Function_base", ptr %3, i32 0, i32 1
  %5 = load ptr, ptr %4, align 8, !tbaa !140
  %6 = icmp ne ptr %5, null
  %7 = xor i1 %6, true
  ret i1 %7
}

; Function Attrs: mustprogress nounwind uwtable
define linkonce_odr noundef nonnull align 8 dereferenceable(8) ptr @_ZNK9__gnu_cxx17__normal_iteratorIPSt8functionIFvP10gmx_mdoutfldbbEESt6vectorIS5_SaIS5_EEE4baseEv(ptr noundef nonnull align 8 dereferenceable(8) %0) #2 comdat align 2 {
  %2 = alloca ptr, align 8
  store ptr %0, ptr %2, align 8, !tbaa !145
  %3 = load ptr, ptr %2, align 8
  %4 = getelementptr inbounds nuw %"class.__gnu_cxx::__normal_iterator.19", ptr %3, i32 0, i32 0
  ret ptr %4
}

; Function Attrs: mustprogress nounwind uwtable
define linkonce_odr void @_ZN9__gnu_cxx17__normal_iteratorIPSt8functionIFvP10gmx_mdoutfldbbEESt6vectorIS5_SaIS5_EEEC2ERKS6_(ptr noundef nonnull align 8 dereferenceable(8) %0, ptr noundef nonnull align 8 dereferenceable(8) %1) unnamed_addr #2 comdat align 2 {
  %3 = alloca ptr, align 8
  %4 = alloca ptr, align 8
  store ptr %0, ptr %3, align 8, !tbaa !145
  store ptr %1, ptr %4, align 8, !tbaa !149
  %5 = load ptr, ptr %3, align 8
  %6 = getelementptr inbounds nuw %"class.__gnu_cxx::__normal_iterator.19", ptr %5, i32 0, i32 0
  %7 = load ptr, ptr %4, align 8, !tbaa !149
  %8 = load ptr, ptr %7, align 8, !tbaa !125
  store ptr %8, ptr %6, align 8, !tbaa !151
  ret void
}

; Function Attrs: mustprogress nounwind uwtable
define linkonce_odr noundef nonnull align 8 dereferenceable(8) ptr @_ZN9__gnu_cxx17__normal_iteratorIPSt8functionIFvP10gmx_mdoutfldbbEESt6vectorIS5_SaIS5_EEEppEv(ptr noundef nonnull align 8 dereferenceable(8) %0) #2 comdat align 2 {
  %2 = alloca ptr, align 8
  store ptr %0, ptr %2, align 8, !tbaa !145
  %3 = load ptr, ptr %2, align 8
  %4 = getelementptr inbounds nuw %"class.__gnu_cxx::__normal_iterator.19", ptr %3, i32 0, i32 0
  %5 = load ptr, ptr %4, align 8, !tbaa !151
  %6 = getelementptr inbounds nuw %"class.std::function.13", ptr %5, i32 1
  store ptr %6, ptr %4, align 8, !tbaa !151
  ret ptr %3
}

; Function Attrs: mustprogress uwtable
define linkonce_odr void @_ZNKSt8functionIFvP10gmx_mdoutfldbbEEclES1_ldbb(ptr noundef nonnull align 8 dereferenceable(32) %0, ptr noundef %1, i64 noundef %2, double noundef %3, i1 noundef zeroext %4, i1 noundef zeroext %5) #0 comdat align 2 {
  %7 = alloca ptr, align 8
  %8 = alloca ptr, align 8
  %9 = alloca i64, align 8
  %10 = alloca double, align 8
  %11 = alloca i8, align 1
  %12 = alloca i8, align 1
  store ptr %0, ptr %7, align 8, !tbaa !125
  store ptr %1, ptr %8, align 8, !tbaa !178
  store i64 %2, ptr %9, align 8, !tbaa !9
  store double %3, ptr %10, align 8, !tbaa !11
  %13 = zext i1 %4 to i8
  store i8 %13, ptr %11, align 1, !tbaa !32
  %14 = zext i1 %5 to i8
  store i8 %14, ptr %12, align 1, !tbaa !32
  %15 = load ptr, ptr %7, align 8
  %16 = call noundef zeroext i1 @_ZNKSt14_Function_base8_M_emptyEv(ptr noundef nonnull align 8 dereferenceable(24) %15)
  br i1 %16, label %17, label %18

17:                                               ; preds = %6
  call void @_ZSt25__throw_bad_function_callv() #23
  unreachable

18:                                               ; preds = %6
  %19 = getelementptr inbounds nuw %"class.std::function.13", ptr %15, i32 0, i32 1
  %20 = load ptr, ptr %19, align 8, !tbaa !135
  %21 = getelementptr inbounds nuw %"class.std::_Function_base", ptr %15, i32 0, i32 0
  call void %20(ptr noundef nonnull align 8 dereferenceable(16) %21, ptr noundef nonnull align 8 dereferenceable(8) %8, ptr noundef nonnull align 8 dereferenceable(8) %9, ptr noundef nonnull align 8 dereferenceable(8) %10, ptr noundef nonnull align 1 dereferenceable(1) %11, ptr noundef nonnull align 1 dereferenceable(1) %12)
  ret void
}

; Function Attrs: mustprogress nounwind uwtable
define linkonce_odr noundef nonnull align 8 dereferenceable(32) ptr @_ZNK9__gnu_cxx17__normal_iteratorIPSt8functionIFvP10gmx_mdoutfldbbEESt6vectorIS5_SaIS5_EEEdeEv(ptr noundef nonnull align 8 dereferenceable(8) %0) #2 comdat align 2 {
  %2 = alloca ptr, align 8
  store ptr %0, ptr %2, align 8, !tbaa !145
  %3 = load ptr, ptr %2, align 8
  %4 = getelementptr inbounds nuw %"class.__gnu_cxx::__normal_iterator.19", ptr %3, i32 0, i32 0
  %5 = load ptr, ptr %4, align 8, !tbaa !151
  ret ptr %5
}

; Function Attrs: inlinehint mustprogress nounwind uwtable
define linkonce_odr noundef zeroext i1 @_ZN9__gnu_cxxneIPSt8functionIFvP10gmx_mdoutfldbbEESt6vectorIS5_SaIS5_EEEEbRKNS_17__normal_iteratorIT_T0_EESF_(ptr noundef nonnull align 8 dereferenceable(8) %0, ptr noundef nonnull align 8 dereferenceable(8) %1) #1 comdat {
  %3 = alloca ptr, align 8
  %4 = alloca ptr, align 8
  store ptr %0, ptr %3, align 8, !tbaa !145
  store ptr %1, ptr %4, align 8, !tbaa !145
  %5 = load ptr, ptr %3, align 8, !tbaa !145
  %6 = call noundef nonnull align 8 dereferenceable(8) ptr @_ZNK9__gnu_cxx17__normal_iteratorIPSt8functionIFvP10gmx_mdoutfldbbEESt6vectorIS5_SaIS5_EEE4baseEv(ptr noundef nonnull align 8 dereferenceable(8) %5) #20
  %7 = load ptr, ptr %6, align 8, !tbaa !125
  %8 = load ptr, ptr %4, align 8, !tbaa !145
  %9 = call noundef nonnull align 8 dereferenceable(8) ptr @_ZNK9__gnu_cxx17__normal_iteratorIPSt8functionIFvP10gmx_mdoutfldbbEESt6vectorIS5_SaIS5_EEE4baseEv(ptr noundef nonnull align 8 dereferenceable(8) %8) #20
  %10 = load ptr, ptr %9, align 8, !tbaa !125
  %11 = icmp ne ptr %7, %10
  ret i1 %11
}

; Function Attrs: mustprogress nounwind uwtable
define linkonce_odr ptr @_ZNSt6vectorISt8functionIFvP10gmx_mdoutfldbbEESaIS4_EE3endEv(ptr noundef nonnull align 8 dereferenceable(24) %0) #2 comdat align 2 {
  %2 = alloca %"class.__gnu_cxx::__normal_iterator.19", align 8
  %3 = alloca ptr, align 8
  store ptr %0, ptr %3, align 8, !tbaa !91
  %4 = load ptr, ptr %3, align 8
  %5 = getelementptr inbounds nuw %"struct.std::_Vector_base.3", ptr %4, i32 0, i32 0
  %6 = getelementptr inbounds nuw %"struct.std::_Vector_base<std::function<void (gmx_mdoutf *, long, double, bool, bool)>, std::allocator<std::function<void (gmx_mdoutf *, long, double, bool, bool)>>>::_Vector_impl_data", ptr %5, i32 0, i32 1
  call void @_ZN9__gnu_cxx17__normal_iteratorIPSt8functionIFvP10gmx_mdoutfldbbEESt6vectorIS5_SaIS5_EEEC2ERKS6_(ptr noundef nonnull align 8 dereferenceable(8) %2, ptr noundef nonnull align 8 dereferenceable(8) %6) #20
  %7 = getelementptr inbounds nuw %"class.__gnu_cxx::__normal_iterator.19", ptr %2, i32 0, i32 0
  %8 = load ptr, ptr %7, align 8
  ret ptr %8
}

; Function Attrs: mustprogress nounwind uwtable
define linkonce_odr ptr @_ZNSt6vectorISt8functionIFvP10gmx_mdoutfldbbEESaIS4_EE5beginEv(ptr noundef nonnull align 8 dereferenceable(24) %0) #2 comdat align 2 {
  %2 = alloca %"class.__gnu_cxx::__normal_iterator.19", align 8
  %3 = alloca ptr, align 8
  store ptr %0, ptr %3, align 8, !tbaa !91
  %4 = load ptr, ptr %3, align 8
  %5 = getelementptr inbounds nuw %"struct.std::_Vector_base.3", ptr %4, i32 0, i32 0
  %6 = getelementptr inbounds nuw %"struct.std::_Vector_base<std::function<void (gmx_mdoutf *, long, double, bool, bool)>, std::allocator<std::function<void (gmx_mdoutf *, long, double, bool, bool)>>>::_Vector_impl_data", ptr %5, i32 0, i32 0
  call void @_ZN9__gnu_cxx17__normal_iteratorIPSt8functionIFvP10gmx_mdoutfldbbEESt6vectorIS5_SaIS5_EEEC2ERKS6_(ptr noundef nonnull align 8 dereferenceable(8) %2, ptr noundef nonnull align 8 dereferenceable(8) %6) #20
  %7 = getelementptr inbounds nuw %"class.__gnu_cxx::__normal_iterator.19", ptr %2, i32 0, i32 0
  %8 = load ptr, ptr %7, align 8
  ret ptr %8
}

; Function Attrs: mustprogress uwtable
define void @_ZN3gmx17TrajectoryElement5writeEldbbb(ptr noundef nonnull align 8 dereferenceable(128) %0, i64 noundef %1, double noundef %2, i1 noundef zeroext %3, i1 noundef zeroext %4, i1 noundef zeroext %5) #0 align 2 {
  %7 = alloca ptr, align 8
  %8 = alloca i64, align 8
  %9 = alloca double, align 8
  %10 = alloca i8, align 1
  %11 = alloca i8, align 1
  %12 = alloca i8, align 1
  %13 = alloca ptr, align 8
  %14 = alloca %"class.__gnu_cxx::__normal_iterator.19", align 8
  %15 = alloca %"class.__gnu_cxx::__normal_iterator.19", align 8
  %16 = alloca ptr, align 8
  %17 = alloca ptr, align 8
  %18 = alloca %"class.__gnu_cxx::__normal_iterator.19", align 8
  %19 = alloca %"class.__gnu_cxx::__normal_iterator.19", align 8
  %20 = alloca ptr, align 8
  store ptr %0, ptr %7, align 8, !tbaa !4
  store i64 %1, ptr %8, align 8, !tbaa !9
  store double %2, ptr %9, align 8, !tbaa !11
  %21 = zext i1 %3 to i8
  store i8 %21, ptr %10, align 1, !tbaa !32
  %22 = zext i1 %4 to i8
  store i8 %22, ptr %11, align 1, !tbaa !32
  %23 = zext i1 %5 to i8
  store i8 %23, ptr %12, align 1, !tbaa !32
  %24 = load ptr, ptr %7, align 8
  %25 = load i8, ptr %10, align 1, !tbaa !32, !range !36, !noundef !37
  %26 = trunc i8 %25 to i1
  br i1 %26, label %30, label %27

27:                                               ; preds = %6
  %28 = load i8, ptr %12, align 1, !tbaa !32, !range !36, !noundef !37
  %29 = trunc i8 %28 to i1
  br i1 %29, label %30, label %55

30:                                               ; preds = %27, %6
  call void @llvm.lifetime.start.p0(i64 8, ptr %13) #20
  %31 = getelementptr inbounds nuw %"class.gmx::TrajectoryElement", ptr %24, i32 0, i32 8
  store ptr %31, ptr %13, align 8, !tbaa !91
  call void @llvm.lifetime.start.p0(i64 8, ptr %14) #20
  %32 = load ptr, ptr %13, align 8, !tbaa !91
  %33 = call ptr @_ZNSt6vectorISt8functionIFvP10gmx_mdoutfldbbEESaIS4_EE5beginEv(ptr noundef nonnull align 8 dereferenceable(24) %32) #20
  %34 = getelementptr inbounds nuw %"class.__gnu_cxx::__normal_iterator.19", ptr %14, i32 0, i32 0
  store ptr %33, ptr %34, align 8
  call void @llvm.lifetime.start.p0(i64 8, ptr %15) #20
  %35 = load ptr, ptr %13, align 8, !tbaa !91
  %36 = call ptr @_ZNSt6vectorISt8functionIFvP10gmx_mdoutfldbbEESaIS4_EE3endEv(ptr noundef nonnull align 8 dereferenceable(24) %35) #20
  %37 = getelementptr inbounds nuw %"class.__gnu_cxx::__normal_iterator.19", ptr %15, i32 0, i32 0
  store ptr %36, ptr %37, align 8
  br label %38

38:                                               ; preds = %52, %30
  %39 = call noundef zeroext i1 @_ZN9__gnu_cxxneIPSt8functionIFvP10gmx_mdoutfldbbEESt6vectorIS5_SaIS5_EEEEbRKNS_17__normal_iteratorIT_T0_EESF_(ptr noundef nonnull align 8 dereferenceable(8) %14, ptr noundef nonnull align 8 dereferenceable(8) %15) #20
  br i1 %39, label %41, label %40

40:                                               ; preds = %38
  call void @llvm.lifetime.end.p0(i64 8, ptr %15) #20
  call void @llvm.lifetime.end.p0(i64 8, ptr %14) #20
  call void @llvm.lifetime.end.p0(i64 8, ptr %13) #20
  br label %54

41:                                               ; preds = %38
  call void @llvm.lifetime.start.p0(i64 8, ptr %16) #20
  %42 = call noundef nonnull align 8 dereferenceable(32) ptr @_ZNK9__gnu_cxx17__normal_iteratorIPSt8functionIFvP10gmx_mdoutfldbbEESt6vectorIS5_SaIS5_EEEdeEv(ptr noundef nonnull align 8 dereferenceable(8) %14) #20
  store ptr %42, ptr %16, align 8, !tbaa !125
  %43 = load ptr, ptr %16, align 8, !tbaa !125
  %44 = getelementptr inbounds nuw %"class.gmx::TrajectoryElement", ptr %24, i32 0, i32 6
  %45 = load ptr, ptr %44, align 8, !tbaa !52
  %46 = load i64, ptr %8, align 8, !tbaa !9
  %47 = load double, ptr %9, align 8, !tbaa !11
  %48 = load i8, ptr %10, align 1, !tbaa !32, !range !36, !noundef !37
  %49 = trunc i8 %48 to i1
  %50 = load i8, ptr %12, align 1, !tbaa !32, !range !36, !noundef !37
  %51 = trunc i8 %50 to i1
  call void @_ZNKSt8functionIFvP10gmx_mdoutfldbbEEclES1_ldbb(ptr noundef nonnull align 8 dereferenceable(32) %43, ptr noundef %45, i64 noundef %46, double noundef %47, i1 noundef zeroext %49, i1 noundef zeroext %51)
  call void @llvm.lifetime.end.p0(i64 8, ptr %16) #20
  br label %52

52:                                               ; preds = %41
  %53 = call noundef nonnull align 8 dereferenceable(8) ptr @_ZN9__gnu_cxx17__normal_iteratorIPSt8functionIFvP10gmx_mdoutfldbbEESt6vectorIS5_SaIS5_EEEppEv(ptr noundef nonnull align 8 dereferenceable(8) %14) #20
  br label %38

54:                                               ; preds = %40
  br label %55

55:                                               ; preds = %54, %27
  %56 = load i8, ptr %11, align 1, !tbaa !32, !range !36, !noundef !37
  %57 = trunc i8 %56 to i1
  br i1 %57, label %61, label %58

58:                                               ; preds = %55
  %59 = load i8, ptr %12, align 1, !tbaa !32, !range !36, !noundef !37
  %60 = trunc i8 %59 to i1
  br i1 %60, label %61, label %86

61:                                               ; preds = %58, %55
  call void @llvm.lifetime.start.p0(i64 8, ptr %17) #20
  %62 = getelementptr inbounds nuw %"class.gmx::TrajectoryElement", ptr %24, i32 0, i32 9
  store ptr %62, ptr %17, align 8, !tbaa !91
  call void @llvm.lifetime.start.p0(i64 8, ptr %18) #20
  %63 = load ptr, ptr %17, align 8, !tbaa !91
  %64 = call ptr @_ZNSt6vectorISt8functionIFvP10gmx_mdoutfldbbEESaIS4_EE5beginEv(ptr noundef nonnull align 8 dereferenceable(24) %63) #20
  %65 = getelementptr inbounds nuw %"class.__gnu_cxx::__normal_iterator.19", ptr %18, i32 0, i32 0
  store ptr %64, ptr %65, align 8
  call void @llvm.lifetime.start.p0(i64 8, ptr %19) #20
  %66 = load ptr, ptr %17, align 8, !tbaa !91
  %67 = call ptr @_ZNSt6vectorISt8functionIFvP10gmx_mdoutfldbbEESaIS4_EE3endEv(ptr noundef nonnull align 8 dereferenceable(24) %66) #20
  %68 = getelementptr inbounds nuw %"class.__gnu_cxx::__normal_iterator.19", ptr %19, i32 0, i32 0
  store ptr %67, ptr %68, align 8
  br label %69

69:                                               ; preds = %83, %61
  %70 = call noundef zeroext i1 @_ZN9__gnu_cxxneIPSt8functionIFvP10gmx_mdoutfldbbEESt6vectorIS5_SaIS5_EEEEbRKNS_17__normal_iteratorIT_T0_EESF_(ptr noundef nonnull align 8 dereferenceable(8) %18, ptr noundef nonnull align 8 dereferenceable(8) %19) #20
  br i1 %70, label %72, label %71

71:                                               ; preds = %69
  call void @llvm.lifetime.end.p0(i64 8, ptr %19) #20
  call void @llvm.lifetime.end.p0(i64 8, ptr %18) #20
  call void @llvm.lifetime.end.p0(i64 8, ptr %17) #20
  br label %85

72:                                               ; preds = %69
  call void @llvm.lifetime.start.p0(i64 8, ptr %20) #20
  %73 = call noundef nonnull align 8 dereferenceable(32) ptr @_ZNK9__gnu_cxx17__normal_iteratorIPSt8functionIFvP10gmx_mdoutfldbbEESt6vectorIS5_SaIS5_EEEdeEv(ptr noundef nonnull align 8 dereferenceable(8) %18) #20
  store ptr %73, ptr %20, align 8, !tbaa !125
  %74 = load ptr, ptr %20, align 8, !tbaa !125
  %75 = getelementptr inbounds nuw %"class.gmx::TrajectoryElement", ptr %24, i32 0, i32 6
  %76 = load ptr, ptr %75, align 8, !tbaa !52
  %77 = load i64, ptr %8, align 8, !tbaa !9
  %78 = load double, ptr %9, align 8, !tbaa !11
  %79 = load i8, ptr %11, align 1, !tbaa !32, !range !36, !noundef !37
  %80 = trunc i8 %79 to i1
  %81 = load i8, ptr %12, align 1, !tbaa !32, !range !36, !noundef !37
  %82 = trunc i8 %81 to i1
  call void @_ZNKSt8functionIFvP10gmx_mdoutfldbbEEclES1_ldbb(ptr noundef nonnull align 8 dereferenceable(32) %74, ptr noundef %76, i64 noundef %77, double noundef %78, i1 noundef zeroext %80, i1 noundef zeroext %82)
  call void @llvm.lifetime.end.p0(i64 8, ptr %20) #20
  br label %83

83:                                               ; preds = %72
  %84 = call noundef nonnull align 8 dereferenceable(8) ptr @_ZN9__gnu_cxx17__normal_iteratorIPSt8functionIFvP10gmx_mdoutfldbbEESt6vectorIS5_SaIS5_EEEppEv(ptr noundef nonnull align 8 dereferenceable(8) %18) #20
  br label %69

85:                                               ; preds = %71
  br label %86

86:                                               ; preds = %85, %58
  ret void
}