; Function Attrs: mustprogress uwtable
define void @_ZN3gmx17TrajectoryElement5writeEldbbb(ptr noundef nonnull readonly align 8 captures(none) dereferenceable(128) %0, i64 noundef %1, double noundef %2, i1 noundef zeroext %3, i1 noundef zeroext %4, i1 noundef zeroext %5) local_unnamed_addr #0 align 2 {
  %7 = alloca ptr, align 8
  %8 = alloca i64, align 8
  %9 = alloca double, align 8
  %10 = alloca i8, align 1
  %11 = alloca i8, align 1
  %12 = alloca ptr, align 8
  %13 = alloca i64, align 8
  %14 = alloca double, align 8
  %15 = alloca i8, align 1
  %16 = alloca i8, align 1
  %brmerge = or i1 %3, %5
  br i1 %brmerge, label %17, label %.loopexit29

17:                                               ; preds = %6
  %18 = getelementptr inbounds nuw i8, ptr %0, i64 80
  %19 = load ptr, ptr %18, align 8, !tbaa !96
  %20 = getelementptr inbounds nuw i8, ptr %0, i64 88
  %21 = load ptr, ptr %20, align 8, !tbaa !96
  %.not30 = icmp eq ptr %19, %21
  br i1 %.not30, label %.loopexit29, label %.lr.ph

.lr.ph:                                           ; preds = %17
  %22 = getelementptr inbounds nuw i8, ptr %0, i64 48
  %23 = zext i1 %3 to i8
  %24 = zext i1 %5 to i8
  br label %25

25:                                               ; preds = %.lr.ph, %_ZNKSt8functionIFvP10gmx_mdoutfldbbEEclES1_ldbb.exit
  %.sroa.025.031 = phi ptr [ %19, %.lr.ph ], [ %32, %_ZNKSt8functionIFvP10gmx_mdoutfldbbEEclES1_ldbb.exit ]
  %26 = load ptr, ptr %22, align 8, !tbaa !56
  call void @llvm.lifetime.start.p0(i64 8, ptr nonnull %12)
  call void @llvm.lifetime.start.p0(i64 8, ptr nonnull %13)
  call void @llvm.lifetime.start.p0(i64 8, ptr nonnull %14)
  call void @llvm.lifetime.start.p0(i64 1, ptr nonnull %15)
  call void @llvm.lifetime.start.p0(i64 1, ptr nonnull %16)
  store ptr %26, ptr %12, align 8, !tbaa !97
  store i64 %1, ptr %13, align 8, !tbaa !29
  store double %2, ptr %14, align 8, !tbaa !30
  store i8 %23, ptr %15, align 1, !tbaa !32
  store i8 %24, ptr %16, align 1, !tbaa !32
  %27 = getelementptr inbounds nuw i8, ptr %.sroa.025.031, i64 16
  %28 = load ptr, ptr %27, align 8, !tbaa !38
  %.not.i.i = icmp eq ptr %28, null
  br i1 %.not.i.i, label %29, label %_ZNKSt8functionIFvP10gmx_mdoutfldbbEEclES1_ldbb.exit

29:                                               ; preds = %25
  call void @_ZSt25__throw_bad_function_callv() #24
  unreachable

_ZNKSt8functionIFvP10gmx_mdoutfldbbEEclES1_ldbb.exit: ; preds = %25
  %30 = getelementptr inbounds nuw i8, ptr %.sroa.025.031, i64 24
  %31 = load ptr, ptr %30, align 8, !tbaa !52
  call void %31(ptr noundef nonnull align 8 dereferenceable(32) %.sroa.025.031, ptr noundef nonnull align 8 dereferenceable(8) %12, ptr noundef nonnull align 8 dereferenceable(8) %13, ptr noundef nonnull align 8 dereferenceable(8) %14, ptr noundef nonnull align 1 dereferenceable(1) %15, ptr noundef nonnull align 1 dereferenceable(1) %16)
  call void @llvm.lifetime.end.p0(i64 8, ptr nonnull %12)
  call void @llvm.lifetime.end.p0(i64 8, ptr nonnull %13)
  call void @llvm.lifetime.end.p0(i64 8, ptr nonnull %14)
  call void @llvm.lifetime.end.p0(i64 1, ptr nonnull %15)
  call void @llvm.lifetime.end.p0(i64 1, ptr nonnull %16)
  %32 = getelementptr inbounds nuw i8, ptr %.sroa.025.031, i64 32
  %.not = icmp eq ptr %32, %21
  br i1 %.not, label %.loopexit29, label %25

.loopexit29:                                      ; preds = %_ZNKSt8functionIFvP10gmx_mdoutfldbbEEclES1_ldbb.exit, %17, %6
  %brmerge18 = or i1 %4, %5
  br i1 %brmerge18, label %33, label %.loopexit

33:                                               ; preds = %.loopexit29
  %34 = getelementptr inbounds nuw i8, ptr %0, i64 104
  %35 = load ptr, ptr %34, align 8, !tbaa !96
  %36 = getelementptr inbounds nuw i8, ptr %0, i64 112
  %37 = load ptr, ptr %36, align 8, !tbaa !96
  %.not2832 = icmp eq ptr %35, %37
  br i1 %.not2832, label %.loopexit, label %.lr.ph34

.lr.ph34:                                         ; preds = %33
  %38 = getelementptr inbounds nuw i8, ptr %0, i64 48
  %39 = zext i1 %4 to i8
  %40 = zext i1 %5 to i8
  br label %41

41:                                               ; preds = %.lr.ph34, %_ZNKSt8functionIFvP10gmx_mdoutfldbbEEclES1_ldbb.exit20
  %.sroa.021.033 = phi ptr [ %35, %.lr.ph34 ], [ %48, %_ZNKSt8functionIFvP10gmx_mdoutfldbbEEclES1_ldbb.exit20 ]
  %42 = load ptr, ptr %38, align 8, !tbaa !56
  call void @llvm.lifetime.start.p0(i64 8, ptr nonnull %7)
  call void @llvm.lifetime.start.p0(i64 8, ptr nonnull %8)
  call void @llvm.lifetime.start.p0(i64 8, ptr nonnull %9)
  call void @llvm.lifetime.start.p0(i64 1, ptr nonnull %10)
  call void @llvm.lifetime.start.p0(i64 1, ptr nonnull %11)
  store ptr %42, ptr %7, align 8, !tbaa !97
  store i64 %1, ptr %8, align 8, !tbaa !29
  store double %2, ptr %9, align 8, !tbaa !30
  store i8 %39, ptr %10, align 1, !tbaa !32
  store i8 %40, ptr %11, align 1, !tbaa !32
  %43 = getelementptr inbounds nuw i8, ptr %.sroa.021.033, i64 16
  %44 = load ptr, ptr %43, align 8, !tbaa !38
  %.not.i.i19 = icmp eq ptr %44, null
  br i1 %.not.i.i19, label %45, label %_ZNKSt8functionIFvP10gmx_mdoutfldbbEEclES1_ldbb.exit20

45:                                               ; preds = %41
  call void @_ZSt25__throw_bad_function_callv() #24
  unreachable

_ZNKSt8functionIFvP10gmx_mdoutfldbbEEclES1_ldbb.exit20: ; preds = %41
  %46 = getelementptr inbounds nuw i8, ptr %.sroa.021.033, i64 24
  %47 = load ptr, ptr %46, align 8, !tbaa !52
  call void %47(ptr noundef nonnull align 8 dereferenceable(32) %.sroa.021.033, ptr noundef nonnull align 8 dereferenceable(8) %7, ptr noundef nonnull align 8 dereferenceable(8) %8, ptr noundef nonnull align 8 dereferenceable(8) %9, ptr noundef nonnull align 1 dereferenceable(1) %10, ptr noundef nonnull align 1 dereferenceable(1) %11)
  call void @llvm.lifetime.end.p0(i64 8, ptr nonnull %7)
  call void @llvm.lifetime.end.p0(i64 8, ptr nonnull %8)
  call void @llvm.lifetime.end.p0(i64 8, ptr nonnull %9)
  call void @llvm.lifetime.end.p0(i64 1, ptr nonnull %10)
  call void @llvm.lifetime.end.p0(i64 1, ptr nonnull %11)
  %48 = getelementptr inbounds nuw i8, ptr %.sroa.021.033, i64 32
  %.not28 = icmp eq ptr %48, %37
  br i1 %.not28, label %.loopexit, label %41

.loopexit:                                        ; preds = %_ZNKSt8functionIFvP10gmx_mdoutfldbbEEclES1_ldbb.exit20, %33, %.loopexit29
  ret void
}